target datalayout = "e-m:e-p270:32:32-p271:32:32-p272:64:64-i64:64-i128:128-f80:128-n8:16:32:64-S128"
target triple = "x86_64-pc-linux-gnu"

%struct._rio = type { ptr, ptr, ptr, ptr, ptr, i64, i64, i64, i64, %union.anon }
%union.anon = type { %struct.anon.2 }
%struct.anon.2 = type { ptr, i64, ptr, i64, i64 }
%struct.raxIterator = type { i32, ptr, ptr, ptr, i64, i64, [128 x i8], ptr, %struct.raxStack, ptr }
%struct.raxStack = type { ptr, i64, i64, [32 x ptr], i32 }
%struct.streamCG = type { %struct.streamID, i64, ptr, ptr }
%struct.streamID = type { i64, i64 }
%struct.streamConsumer = type { i64, i64, ptr, ptr }

@.str.22 = private unnamed_addr constant [2 x i8] c"^\00", align 1

; Function Attrs: inlinehint nounwind uwtable
define internal i64 @rioWrite(ptr noundef %0, ptr noundef %1, i64 noundef %2) #6 {
  %4 = alloca i64, align 8
  %5 = alloca ptr, align 8
  %6 = alloca ptr, align 8
  %7 = alloca i64, align 8
  %8 = alloca i64, align 8
  %9 = alloca i32, align 4
  store ptr %0, ptr %5, align 8, !tbaa !53
  store ptr %1, ptr %6, align 8, !tbaa !55
  store i64 %2, ptr %7, align 8, !tbaa !56
  %10 = load ptr, ptr %5, align 8, !tbaa !53
  %11 = getelementptr inbounds nuw %struct._rio, ptr %10, i32 0, i32 6
  %12 = load i64, ptr %11, align 8, !tbaa !57
  %13 = and i64 %12, 6
  %14 = icmp ne i64 %13, 0
  br i1 %14, label %15, label %16

15:                                               ; preds = %3
  store i64 0, ptr %4, align 8
  br label %80

16:                                               ; preds = %3
  br label %17

17:                                               ; preds = %78, %16
  %18 = load i64, ptr %7, align 8, !tbaa !56
  %19 = icmp ne i64 %18, 0
  br i1 %19, label %20, label %79

20:                                               ; preds = %17
  call void @llvm.lifetime.start.p0(i64 8, ptr %8) #15
  %21 = load ptr, ptr %5, align 8, !tbaa !53
  %22 = getelementptr inbounds nuw %struct._rio, ptr %21, i32 0, i32 8
  %23 = load i64, ptr %22, align 8, !tbaa !59
  %24 = icmp ne i64 %23, 0
  br i1 %24, label %25, label %35

25:                                               ; preds = %20
  %26 = load ptr, ptr %5, align 8, !tbaa !53
  %27 = getelementptr inbounds nuw %struct._rio, ptr %26, i32 0, i32 8
  %28 = load i64, ptr %27, align 8, !tbaa !59
  %29 = load i64, ptr %7, align 8, !tbaa !56
  %30 = icmp ult i64 %28, %29
  br i1 %30, label %31, label %35

31:                                               ; preds = %25
  %32 = load ptr, ptr %5, align 8, !tbaa !53
  %33 = getelementptr inbounds nuw %struct._rio, ptr %32, i32 0, i32 8
  %34 = load i64, ptr %33, align 8, !tbaa !59
  br label %37

35:                                               ; preds = %25, %20
  %36 = load i64, ptr %7, align 8, !tbaa !56
  br label %37

37:                                               ; preds = %35, %31
  %38 = phi i64 [ %34, %31 ], [ %36, %35 ]
  store i64 %38, ptr %8, align 8, !tbaa !56
  %39 = load ptr, ptr %5, align 8, !tbaa !53
  %40 = getelementptr inbounds nuw %struct._rio, ptr %39, i32 0, i32 4
  %41 = load ptr, ptr %40, align 8, !tbaa !60
  %42 = icmp ne ptr %41, null
  br i1 %42, label %43, label %50

43:                                               ; preds = %37
  %44 = load ptr, ptr %5, align 8, !tbaa !53
  %45 = getelementptr inbounds nuw %struct._rio, ptr %44, i32 0, i32 4
  %46 = load ptr, ptr %45, align 8, !tbaa !60
  %47 = load ptr, ptr %5, align 8, !tbaa !53
  %48 = load ptr, ptr %6, align 8, !tbaa !55
  %49 = load i64, ptr %8, align 8, !tbaa !56
  call void %46(ptr noundef %47, ptr noundef %48, i64 noundef %49)
  br label %50

50:                                               ; preds = %43, %37
  %51 = load ptr, ptr %5, align 8, !tbaa !53
  %52 = getelementptr inbounds nuw %struct._rio, ptr %51, i32 0, i32 1
  %53 = load ptr, ptr %52, align 8, !tbaa !61
  %54 = load ptr, ptr %5, align 8, !tbaa !53
  %55 = load ptr, ptr %6, align 8, !tbaa !55
  %56 = load i64, ptr %8, align 8, !tbaa !56
  %57 = call i64 %53(ptr noundef %54, ptr noundef %55, i64 noundef %56)
  %58 = icmp eq i64 %57, 0
  br i1 %58, label %59, label %64

59:                                               ; preds = %50
  %60 = load ptr, ptr %5, align 8, !tbaa !53
  %61 = getelementptr inbounds nuw %struct._rio, ptr %60, i32 0, i32 6
  %62 = load i64, ptr %61, align 8, !tbaa !57
  %63 = or i64 %62, 2
  store i64 %63, ptr %61, align 8, !tbaa !57
  store i64 0, ptr %4, align 8
  store i32 1, ptr %9, align 4
  br label %76

64:                                               ; preds = %50
  %65 = load ptr, ptr %6, align 8, !tbaa !55
  %66 = load i64, ptr %8, align 8, !tbaa !56
  %67 = getelementptr inbounds nuw i8, ptr %65, i64 %66
  store ptr %67, ptr %6, align 8, !tbaa !55
  %68 = load i64, ptr %8, align 8, !tbaa !56
  %69 = load i64, ptr %7, align 8, !tbaa !56
  %70 = sub i64 %69, %68
  store i64 %70, ptr %7, align 8, !tbaa !56
  %71 = load i64, ptr %8, align 8, !tbaa !56
  %72 = load ptr, ptr %5, align 8, !tbaa !53
  %73 = getelementptr inbounds nuw %struct._rio, ptr %72, i32 0, i32 7
  %74 = load i64, ptr %73, align 8, !tbaa !62
  %75 = add i64 %74, %71
  store i64 %75, ptr %73, align 8, !tbaa !62
  store i32 0, ptr %9, align 4
  br label %76

76:                                               ; preds = %64, %59
  call void @llvm.lifetime.end.p0(i64 8, ptr %8) #15
  %77 = load i32, ptr %9, align 4
  switch i32 %77, label %82 [
    i32 0, label %78
    i32 1, label %80
  ]

78:                                               ; preds = %76
  br label %17, !llvm.loop !63

79:                                               ; preds = %17
  store i64 1, ptr %4, align 8
  br label %80

80:                                               ; preds = %79, %76, %15
  %81 = load i64, ptr %4, align 8
  ret i64 %81

82:                                               ; preds = %76
  unreachable
}

; Function Attrs: nounwind uwtable
define dso_local i64 @rdbWriteRaw(ptr noundef %0, ptr noundef %1, i64 noundef %2) #0 {
  %4 = alloca i64, align 8
  %5 = alloca ptr, align 8
  %6 = alloca ptr, align 8
  %7 = alloca i64, align 8
  store ptr %0, ptr %5, align 8, !tbaa !53
  store ptr %1, ptr %6, align 8, !tbaa !55
  store i64 %2, ptr %7, align 8, !tbaa !56
  %8 = load ptr, ptr %5, align 8, !tbaa !53
  %9 = icmp ne ptr %8, null
  br i1 %9, label %10, label %17

10:                                               ; preds = %3
  %11 = load ptr, ptr %5, align 8, !tbaa !53
  %12 = load ptr, ptr %6, align 8, !tbaa !55
  %13 = load i64, ptr %7, align 8, !tbaa !56
  %14 = call i64 @rioWrite(ptr noundef %11, ptr noundef %12, i64 noundef %13)
  %15 = icmp eq i64 %14, 0
  br i1 %15, label %16, label %17

16:                                               ; preds = %10
  store i64 -1, ptr %4, align 8
  br label %19

17:                                               ; preds = %10, %3
  %18 = load i64, ptr %7, align 8, !tbaa !56
  store i64 %18, ptr %4, align 8
  br label %19

19:                                               ; preds = %17, %16
  %20 = load i64, ptr %4, align 8
  ret i64 %20
}

; Function Attrs: nounwind uwtable
define dso_local i64 @rdbSaveMillisecondTime(ptr noundef %0, i64 noundef %1) #0 {
  %3 = alloca ptr, align 8
  %4 = alloca i64, align 8
  %5 = alloca i64, align 8
  store ptr %0, ptr %3, align 8, !tbaa !53
  store i64 %1, ptr %4, align 8, !tbaa !68
  call void @llvm.lifetime.start.p0(i64 8, ptr %5) #15
  %6 = load i64, ptr %4, align 8, !tbaa !68
  store i64 %6, ptr %5, align 8, !tbaa !56
  %7 = load ptr, ptr %3, align 8, !tbaa !53
  %8 = call i64 @rdbWriteRaw(ptr noundef %7, ptr noundef %5, i64 noundef 8)
  call void @llvm.lifetime.end.p0(i64 8, ptr %5) #15
  ret i64 %8
}

; Function Attrs: nounwind uwtable
define dso_local i64 @rdbSaveStreamConsumers(ptr noundef %0, ptr noundef %1) #0 {
  %3 = alloca i64, align 8
  %4 = alloca ptr, align 8
  %5 = alloca ptr, align 8
  %6 = alloca i64, align 8
  %7 = alloca i64, align 8
  %8 = alloca i32, align 4
  %9 = alloca %struct.raxIterator, align 8
  %10 = alloca ptr, align 8
  store ptr %0, ptr %4, align 8, !tbaa !53
  store ptr %1, ptr %5, align 8, !tbaa !98
  call void @llvm.lifetime.start.p0(i64 8, ptr %6) #15
  call void @llvm.lifetime.start.p0(i64 8, ptr %7) #15
  store i64 0, ptr %7, align 8, !tbaa !56
  %11 = load ptr, ptr %4, align 8, !tbaa !53
  %12 = load ptr, ptr %5, align 8, !tbaa !98
  %13 = getelementptr inbounds nuw %struct.streamCG, ptr %12, i32 0, i32 3
  %14 = load ptr, ptr %13, align 8, !tbaa !100
  %15 = call i64 @raxSize(ptr noundef %14)
  %16 = call i32 @rdbSaveLen(ptr noundef %11, i64 noundef %15)
  %17 = sext i32 %16 to i64
  store i64 %17, ptr %6, align 8, !tbaa !56
  %18 = icmp eq i64 %17, -1
  br i1 %18, label %19, label %20

19:                                               ; preds = %2
  store i64 -1, ptr %3, align 8
  store i32 1, ptr %8, align 4
  br label %85

20:                                               ; preds = %2
  %21 = load i64, ptr %6, align 8, !tbaa !56
  %22 = load i64, ptr %7, align 8, !tbaa !56
  %23 = add nsw i64 %22, %21
  store i64 %23, ptr %7, align 8, !tbaa !56
  call void @llvm.lifetime.start.p0(i64 480, ptr %9) #15
  %24 = load ptr, ptr %5, align 8, !tbaa !98
  %25 = getelementptr inbounds nuw %struct.streamCG, ptr %24, i32 0, i32 3
  %26 = load ptr, ptr %25, align 8, !tbaa !100
  call void @raxStart(ptr noundef %9, ptr noundef %26)
  %27 = call i32 @raxSeek(ptr noundef %9, ptr noundef @.str.22, ptr noundef null, i64 noundef 0)
  br label %28

28:                                               ; preds = %81, %20
  %29 = call i32 @raxNext(ptr noundef %9)
  %30 = icmp ne i32 %29, 0
  br i1 %30, label %31, label %82

31:                                               ; preds = %28
  call void @llvm.lifetime.start.p0(i64 8, ptr %10) #15
  %32 = getelementptr inbounds nuw %struct.raxIterator, ptr %9, i32 0, i32 3
  %33 = load ptr, ptr %32, align 8, !tbaa !90
  store ptr %33, ptr %10, align 8, !tbaa !103
  %34 = load ptr, ptr %4, align 8, !tbaa !53
  %35 = getelementptr inbounds nuw %struct.raxIterator, ptr %9, i32 0, i32 2
  %36 = load ptr, ptr %35, align 8, !tbaa !86
  %37 = getelementptr inbounds nuw %struct.raxIterator, ptr %9, i32 0, i32 4
  %38 = load i64, ptr %37, align 8, !tbaa !104
  %39 = call i64 @rdbSaveRawString(ptr noundef %34, ptr noundef %36, i64 noundef %38)
  store i64 %39, ptr %6, align 8, !tbaa !56
  %40 = icmp eq i64 %39, -1
  br i1 %40, label %41, label %42

41:                                               ; preds = %31
  call void @raxStop(ptr noundef %9)
  store i64 -1, ptr %3, align 8
  store i32 1, ptr %8, align 4
  br label %79

42:                                               ; preds = %31
  %43 = load i64, ptr %6, align 8, !tbaa !56
  %44 = load i64, ptr %7, align 8, !tbaa !56
  %45 = add nsw i64 %44, %43
  store i64 %45, ptr %7, align 8, !tbaa !56
  %46 = load ptr, ptr %4, align 8, !tbaa !53
  %47 = load ptr, ptr %10, align 8, !tbaa !103
  %48 = getelementptr inbounds nuw %struct.streamConsumer, ptr %47, i32 0, i32 0
  %49 = load i64, ptr %48, align 8, !tbaa !105
  %50 = call i64 @rdbSaveMillisecondTime(ptr noundef %46, i64 noundef %49)
  store i64 %50, ptr %6, align 8, !tbaa !56
  %51 = icmp eq i64 %50, -1
  br i1 %51, label %52, label %53

52:                                               ; preds = %42
  call void @raxStop(ptr noundef %9)
  store i64 -1, ptr %3, align 8
  store i32 1, ptr %8, align 4
  br label %79

53:                                               ; preds = %42
  %54 = load i64, ptr %6, align 8, !tbaa !56
  %55 = load i64, ptr %7, align 8, !tbaa !56
  %56 = add nsw i64 %55, %54
  store i64 %56, ptr %7, align 8, !tbaa !56
  %57 = load ptr, ptr %4, align 8, !tbaa !53
  %58 = load ptr, ptr %10, align 8, !tbaa !103
  %59 = getelementptr inbounds nuw %struct.streamConsumer, ptr %58, i32 0, i32 1
  %60 = load i64, ptr %59, align 8, !tbaa !107
  %61 = call i64 @rdbSaveMillisecondTime(ptr noundef %57, i64 noundef %60)
  store i64 %61, ptr %6, align 8, !tbaa !56
  %62 = icmp eq i64 %61, -1
  br i1 %62, label %63, label %64

63:                                               ; preds = %53
  call void @raxStop(ptr noundef %9)
  store i64 -1, ptr %3, align 8
  store i32 1, ptr %8, align 4
  br label %79

64:                                               ; preds = %53
  %65 = load i64, ptr %6, align 8, !tbaa !56
  %66 = load i64, ptr %7, align 8, !tbaa !56
  %67 = add nsw i64 %66, %65
  store i64 %67, ptr %7, align 8, !tbaa !56
  %68 = load ptr, ptr %4, align 8, !tbaa !53
  %69 = load ptr, ptr %10, align 8, !tbaa !103
  %70 = getelementptr inbounds nuw %struct.streamConsumer, ptr %69, i32 0, i32 3
  %71 = load ptr, ptr %70, align 8, !tbaa !108
  %72 = call i64 @rdbSaveStreamPEL(ptr noundef %68, ptr noundef %71, i32 noundef 0)
  store i64 %72, ptr %6, align 8, !tbaa !56
  %73 = icmp eq i64 %72, -1
  br i1 %73, label %74, label %75

74:                                               ; preds = %64
  call void @raxStop(ptr noundef %9)
  store i64 -1, ptr %3, align 8
  store i32 1, ptr %8, align 4
  br label %79

75:                                               ; preds = %64
  %76 = load i64, ptr %6, align 8, !tbaa !56
  %77 = load i64, ptr %7, align 8, !tbaa !56
  %78 = add nsw i64 %77, %76
  store i64 %78, ptr %7, align 8, !tbaa !56
  store i32 0, ptr %8, align 4
  br label %79

79:                                               ; preds = %75, %74, %63, %52, %41
  call void @llvm.lifetime.end.p0(i64 8, ptr %10) #15
  %80 = load i32, ptr %8, align 4
  switch i32 %80, label %84 [
    i32 0, label %81
  ]

81:                                               ; preds = %79
  br label %28, !llvm.loop !109

82:                                               ; preds = %28
  call void @raxStop(ptr noundef %9)
  %83 = load i64, ptr %7, align 8, !tbaa !56
  store i64 %83, ptr %3, align 8
  store i32 1, ptr %8, align 4
  br label %84

84:                                               ; preds = %82, %79
  call void @llvm.lifetime.end.p0(i64 480, ptr %9) #15
  br label %85

85:                                               ; preds = %84, %19
  call void @llvm.lifetime.end.p0(i64 8, ptr %7) #15
  call void @llvm.lifetime.end.p0(i64 8, ptr %6) #15
  %86 = load i64, ptr %3, align 8
  ret i64 %86
}