; Function Attrs: nounwind uwtable
define dso_local i64 @rdbSaveStreamConsumers(ptr noundef %0, ptr noundef readonly captures(none) %1) local_unnamed_addr #0 {
  %3 = alloca i64, align 8
  %4 = alloca i64, align 8
  %5 = alloca %struct.raxIterator, align 8
  %6 = getelementptr inbounds nuw i8, ptr %1, i64 32
  %7 = load ptr, ptr %6, align 8, !tbaa !83
  %8 = tail call i64 @raxSize(ptr noundef %7) #23
  %9 = tail call i32 @rdbSaveLen(ptr noundef %0, i64 noundef %8)
  %10 = icmp eq i32 %9, -1
  br i1 %10, label %93, label %11

11:                                               ; preds = %2
  %12 = zext nneg i32 %9 to i64
  call void @llvm.lifetime.start.p0(i64 480, ptr nonnull %5) #23
  %13 = load ptr, ptr %6, align 8, !tbaa !83
  call void @raxStart(ptr noundef nonnull %5, ptr noundef %13) #23
  %14 = call i32 @raxSeek(ptr noundef nonnull %5, ptr noundef nonnull @.str.22, ptr noundef null, i64 noundef 0) #23
  %15 = call i32 @raxNext(ptr noundef nonnull %5) #23
  %.not60 = icmp eq i32 %15, 0
  br i1 %.not60, label %.thread44, label %.lr.ph

.lr.ph:                                           ; preds = %11
  %16 = getelementptr inbounds nuw i8, ptr %5, i64 24
  %17 = getelementptr inbounds nuw i8, ptr %5, i64 16
  %18 = getelementptr inbounds nuw i8, ptr %5, i64 32
  %.not.i.i = icmp eq ptr %0, null
  %19 = getelementptr inbounds nuw i8, ptr %0, i64 48
  %20 = getelementptr inbounds nuw i8, ptr %0, i64 64
  %21 = getelementptr inbounds nuw i8, ptr %0, i64 32
  %22 = getelementptr inbounds nuw i8, ptr %0, i64 8
  %23 = getelementptr inbounds nuw i8, ptr %0, i64 56
  br i1 %.not.i.i, label %.lr.ph.split.us, label %.lr.ph.split

.lr.ph.split.us:                                  ; preds = %.lr.ph, %33
  %.02361.us = phi i64 [ %36, %33 ], [ %12, %.lr.ph ]
  %24 = load ptr, ptr %16, align 8, !tbaa !74
  %25 = load ptr, ptr %17, align 8, !tbaa !81
  %26 = load i64, ptr %18, align 8, !tbaa !86
  %27 = call i64 @rdbSaveRawString(ptr noundef null, ptr noundef %25, i64 noundef %26)
  %28 = icmp eq i64 %27, -1
  br i1 %28, label %.thread44, label %.thread.us

.thread.us:                                       ; preds = %.lr.ph.split.us
  %29 = getelementptr inbounds nuw i8, ptr %24, i64 24
  %30 = load ptr, ptr %29, align 8, !tbaa !87
  %31 = call i64 @rdbSaveStreamPEL(ptr noundef null, ptr noundef %30, i32 noundef 0)
  %32 = icmp eq i64 %31, -1
  br i1 %32, label %.thread44, label %33

33:                                               ; preds = %.thread.us
  %34 = add i64 %.02361.us, 16
  %35 = add i64 %34, %27
  %36 = add nsw i64 %35, %31
  %37 = call i32 @raxNext(ptr noundef nonnull %5) #23
  %.not.us = icmp eq i32 %37, 0
  br i1 %.not.us, label %.thread44, label %.lr.ph.split.us, !llvm.loop !89

.lr.ph.split:                                     ; preds = %.lr.ph, %88
  %.02361 = phi i64 [ %91, %88 ], [ %12, %.lr.ph ]
  %38 = load ptr, ptr %16, align 8, !tbaa !74
  %39 = load ptr, ptr %17, align 8, !tbaa !81
  %40 = load i64, ptr %18, align 8, !tbaa !86
  %41 = call i64 @rdbSaveRawString(ptr noundef nonnull %0, ptr noundef %39, i64 noundef %40)
  %42 = icmp eq i64 %41, -1
  br i1 %42, label %.thread44, label %43

43:                                               ; preds = %.lr.ph.split
  %44 = load i64, ptr %38, align 8, !tbaa !90
  call void @llvm.lifetime.start.p0(i64 8, ptr nonnull %4) #23
  store i64 %44, ptr %4, align 8, !tbaa !61
  %45 = load i64, ptr %19, align 8, !tbaa !53
  %46 = and i64 %45, 6
  %.not.i.i.i = icmp eq i64 %46, 0
  br i1 %.not.i.i.i, label %.preheader.i.i.i, label %.loopexit47

.preheader.i.i.i:                                 ; preds = %43, %58
  %.02539.i.i.i = phi i64 [ %60, %58 ], [ 8, %43 ]
  %.02738.i.i.i = phi ptr [ %59, %58 ], [ %4, %43 ]
  %47 = load i64, ptr %20, align 8, !tbaa !55
  %.not32.not.i.i.i = icmp eq i64 %47, 0
  %48 = call i64 @llvm.umin.i64(i64 %47, i64 %.02539.i.i.i)
  %49 = select i1 %.not32.not.i.i.i, i64 %.02539.i.i.i, i64 %48
  %50 = load ptr, ptr %21, align 8, !tbaa !56
  %.not33.i.i.i = icmp eq ptr %50, null
  br i1 %.not33.i.i.i, label %52, label %51

51:                                               ; preds = %.preheader.i.i.i
  call void %50(ptr noundef nonnull %0, ptr noundef %.02738.i.i.i, i64 noundef %49) #23
  br label %52

52:                                               ; preds = %51, %.preheader.i.i.i
  %53 = load ptr, ptr %22, align 8, !tbaa !57
  %54 = call i64 %53(ptr noundef nonnull %0, ptr noundef %.02738.i.i.i, i64 noundef %49) #23
  %55 = icmp eq i64 %54, 0
  br i1 %55, label %.thread.i.i.i, label %58

.thread.i.i.i:                                    ; preds = %52
  %56 = load i64, ptr %19, align 8, !tbaa !53
  %57 = or i64 %56, 2
  store i64 %57, ptr %19, align 8, !tbaa !53
  br label %.loopexit47

58:                                               ; preds = %52
  %59 = getelementptr inbounds nuw i8, ptr %.02738.i.i.i, i64 %49
  %60 = sub i64 %.02539.i.i.i, %49
  %61 = load i64, ptr %23, align 8, !tbaa !58
  %62 = add i64 %61, %49
  store i64 %62, ptr %23, align 8, !tbaa !58
  %.not31.i.i.i = icmp eq i64 %60, 0
  br i1 %.not31.i.i.i, label %63, label %.preheader.i.i.i

.loopexit47:                                      ; preds = %43, %.thread.i.i.i
  call void @llvm.lifetime.end.p0(i64 8, ptr nonnull %4) #23
  br label %.thread44

63:                                               ; preds = %58
  call void @llvm.lifetime.end.p0(i64 8, ptr nonnull %4) #23
  %64 = getelementptr inbounds nuw i8, ptr %38, i64 8
  %65 = load i64, ptr %64, align 8, !tbaa !91
  call void @llvm.lifetime.start.p0(i64 8, ptr nonnull %3) #23
  store i64 %65, ptr %3, align 8, !tbaa !61
  %66 = load i64, ptr %19, align 8, !tbaa !53
  %67 = and i64 %66, 6
  %.not.i.i.i31 = icmp eq i64 %67, 0
  br i1 %.not.i.i.i31, label %.preheader.i.i.i33, label %.loopexit48

.preheader.i.i.i33:                               ; preds = %63, %79
  %.02539.i.i.i34 = phi i64 [ %81, %79 ], [ 8, %63 ]
  %.02738.i.i.i35 = phi ptr [ %80, %79 ], [ %3, %63 ]
  %68 = load i64, ptr %20, align 8, !tbaa !55
  %.not32.not.i.i.i36 = icmp eq i64 %68, 0
  %69 = call i64 @llvm.umin.i64(i64 %68, i64 %.02539.i.i.i34)
  %70 = select i1 %.not32.not.i.i.i36, i64 %.02539.i.i.i34, i64 %69
  %71 = load ptr, ptr %21, align 8, !tbaa !56
  %.not33.i.i.i37 = icmp eq ptr %71, null
  br i1 %.not33.i.i.i37, label %73, label %72

72:                                               ; preds = %.preheader.i.i.i33
  call void %71(ptr noundef nonnull %0, ptr noundef %.02738.i.i.i35, i64 noundef %70) #23
  br label %73

73:                                               ; preds = %72, %.preheader.i.i.i33
  %74 = load ptr, ptr %22, align 8, !tbaa !57
  %75 = call i64 %74(ptr noundef nonnull %0, ptr noundef %.02738.i.i.i35, i64 noundef %70) #23
  %76 = icmp eq i64 %75, 0
  br i1 %76, label %.thread.i.i.i39, label %79

.thread.i.i.i39:                                  ; preds = %73
  %77 = load i64, ptr %19, align 8, !tbaa !53
  %78 = or i64 %77, 2
  store i64 %78, ptr %19, align 8, !tbaa !53
  br label %.loopexit48

79:                                               ; preds = %73
  %80 = getelementptr inbounds nuw i8, ptr %.02738.i.i.i35, i64 %70
  %81 = sub i64 %.02539.i.i.i34, %70
  %82 = load i64, ptr %23, align 8, !tbaa !58
  %83 = add i64 %82, %70
  store i64 %83, ptr %23, align 8, !tbaa !58
  %.not31.i.i.i38 = icmp eq i64 %81, 0
  br i1 %.not31.i.i.i38, label %.loopexit, label %.preheader.i.i.i33

.loopexit48:                                      ; preds = %63, %.thread.i.i.i39
  call void @llvm.lifetime.end.p0(i64 8, ptr nonnull %3) #23
  br label %.thread44

.loopexit:                                        ; preds = %79
  call void @llvm.lifetime.end.p0(i64 8, ptr nonnull %3) #23
  %84 = getelementptr inbounds nuw i8, ptr %38, i64 24
  %85 = load ptr, ptr %84, align 8, !tbaa !87
  %86 = call i64 @rdbSaveStreamPEL(ptr noundef nonnull %0, ptr noundef %85, i32 noundef 0)
  %87 = icmp eq i64 %86, -1
  br i1 %87, label %.thread44, label %88

88:                                               ; preds = %.loopexit
  %89 = add i64 %.02361, 16
  %90 = add i64 %89, %41
  %91 = add nsw i64 %90, %86
  %92 = call i32 @raxNext(ptr noundef nonnull %5) #23
  %.not = icmp eq i32 %92, 0
  br i1 %.not, label %.thread44, label %.lr.ph.split, !llvm.loop !89

.thread44:                                        ; preds = %88, %.loopexit, %.lr.ph.split, %33, %.thread.us, %.lr.ph.split.us, %11, %.loopexit48, %.loopexit47
  %.3 = phi i64 [ -1, %.loopexit47 ], [ -1, %.loopexit48 ], [ %12, %11 ], [ -1, %.lr.ph.split.us ], [ -1, %.thread.us ], [ %36, %33 ], [ -1, %.lr.ph.split ], [ -1, %.loopexit ], [ %91, %88 ]
  call void @raxStop(ptr noundef nonnull %5) #23
  call void @llvm.lifetime.end.p0(i64 480, ptr nonnull %5) #23
  br label %93

93:                                               ; preds = %2, %.thread44
  %.0 = phi i64 [ %.3, %.thread44 ], [ -1, %2 ]
  ret i64 %.0
}